; Function Attrs: mustprogress nofree norecurse nosync nounwind memory(argmem: readwrite) uwtable
define internal void @_ZN2cv4gapi12_GLOBAL__N_120fillBorderReflectRowIsEEvPhiii(ptr noundef captures(none) %0, i32 noundef %1, i32 noundef %2, i32 noundef %3) #19 {
  %5 = sub nsw i32 %1, %3
  %6 = mul nsw i32 %5, %2
  %7 = sext i32 %6 to i64
  %8 = getelementptr inbounds i16, ptr %0, i64 %7
  %9 = icmp sgt i32 %3, 0
  %10 = icmp sgt i32 %2, 0
  %or.cond = and i1 %9, %10
  br i1 %or.cond, label %.preheader.us.preheader, label %._crit_edge32

.preheader.us.preheader:                          ; preds = %4
  %11 = shl nuw nsw i32 %3, 1
  %12 = zext nneg i32 %11 to i64
  %13 = zext nneg i32 %2 to i64
  %wide.trip.count38 = zext nneg i32 %3 to i64
  %wide.trip.count = zext nneg i32 %2 to i64
  br label %.preheader.us

.preheader.us:                                    ; preds = %.preheader.us.preheader, %._crit_edge.us
  %indvars.iv35 = phi i64 [ 0, %.preheader.us.preheader ], [ %indvars.iv.next36, %._crit_edge.us ]
  %14 = sub nsw i64 %12, %indvars.iv35
  %15 = mul nsw i64 %14, %13
  %16 = mul nuw nsw i64 %indvars.iv35, %13
  %17 = sub nuw nsw i64 -2, %indvars.iv35
  %18 = mul nsw i64 %17, %13
  %invariant.gep = getelementptr i16, ptr %0, i64 %15
  %invariant.gep40 = getelementptr i16, ptr %8, i64 %18
  br label %19

19:                                               ; preds = %.preheader.us, %19
  %indvars.iv = phi i64 [ 0, %.preheader.us ], [ %indvars.iv.next, %19 ]
  %gep = getelementptr i16, ptr %invariant.gep, i64 %indvars.iv
  %20 = load i16, ptr %gep, align 2, !tbaa !207
  %21 = add nuw nsw i64 %indvars.iv, %16
  %22 = getelementptr inbounds nuw i16, ptr %0, i64 %21
  store i16 %20, ptr %22, align 2, !tbaa !207
  %gep41 = getelementptr i16, ptr %invariant.gep40, i64 %indvars.iv
  %23 = load i16, ptr %gep41, align 2, !tbaa !207
  %24 = getelementptr inbounds nuw i16, ptr %8, i64 %21
  store i16 %23, ptr %24, align 2, !tbaa !207
  %indvars.iv.next = add nuw nsw i64 %indvars.iv, 1
  %exitcond.not = icmp eq i64 %indvars.iv.next, %wide.trip.count
  br i1 %exitcond.not, label %._crit_edge.us, label %19, !llvm.loop !232

._crit_edge.us:                                   ; preds = %19
  %indvars.iv.next36 = add nuw nsw i64 %indvars.iv35, 1
  %exitcond39.not = icmp eq i64 %indvars.iv.next36, %wide.trip.count38
  br i1 %exitcond39.not, label %._crit_edge32, label %.preheader.us, !llvm.loop !233

._crit_edge32:                                    ; preds = %._crit_edge.us, %4
  ret void
}